target datalayout = "e-m:e-p270:32:32-p271:32:32-p272:64:64-i64:64-i128:128-f80:128-n8:16:32:64-S128"
target triple = "x86_64-pc-linux-gnu"

; Function Attrs: mustprogress nounwind uwtable
define linkonce_odr hidden noundef i32 @_ZN7zstring14ascii_max_charEv() #6 comdat align 2 {
  ret i32 255
}

; Function Attrs: mustprogress nounwind uwtable
define linkonce_odr hidden noundef i32 @_ZN7zstring12bmp_max_charEv() #6 comdat align 2 {
  ret i32 65535
}

; Function Attrs: mustprogress nounwind uwtable
define linkonce_odr hidden noundef i32 @_ZN7zstring16unicode_max_charEv() #6 comdat align 2 {
  ret i32 196607
}

; Function Attrs: mustprogress uwtable
define linkonce_odr hidden noundef i32 @_ZN7zstring8max_charEv() #4 comdat align 2 {
  %1 = alloca i32, align 4
  %2 = call noundef i32 @_ZN7zstring12get_encodingEv()
  switch i32 %2, label %9 [
    i32 1, label %3
    i32 2, label %5
    i32 0, label %7
  ]

3:                                                ; preds = %0
  %4 = call noundef i32 @_ZN7zstring16unicode_max_charEv()
  store i32 %4, ptr %1, align 4
  br label %11

5:                                                ; preds = %0
  %6 = call noundef i32 @_ZN7zstring12bmp_max_charEv()
  store i32 %6, ptr %1, align 4
  br label %11

7:                                                ; preds = %0
  %8 = call noundef i32 @_ZN7zstring14ascii_max_charEv()
  store i32 %8, ptr %1, align 4
  br label %11

9:                                                ; preds = %0
  %10 = call noundef i32 @_ZN7zstring16unicode_max_charEv()
  store i32 %10, ptr %1, align 4
  br label %11

11:                                               ; preds = %9, %7, %5, %3
  %12 = load i32, ptr %1, align 4
  ret i32 %12
}

; Function Attrs: mustprogress nounwind uwtable
define internal noundef zeroext i1 @_ZL12is_hex_digitcRj(i8 noundef signext %0, ptr noundef nonnull align 4 dereferenceable(4) %1) #6 {
  %3 = alloca i1, align 1
  %4 = alloca i8, align 1
  %5 = alloca ptr, align 8
  store i8 %0, ptr %4, align 1, !tbaa !15
  store ptr %1, ptr %5, align 8, !tbaa !11
  %6 = load i8, ptr %4, align 1, !tbaa !15
  %7 = sext i8 %6 to i32
  %8 = icmp sle i32 48, %7
  br i1 %8, label %9, label %18

9:                                                ; preds = %2
  %10 = load i8, ptr %4, align 1, !tbaa !15
  %11 = sext i8 %10 to i32
  %12 = icmp sle i32 %11, 57
  br i1 %12, label %13, label %18

13:                                               ; preds = %9
  %14 = load i8, ptr %4, align 1, !tbaa !15
  %15 = sext i8 %14 to i32
  %16 = sub nsw i32 %15, 48
  %17 = load ptr, ptr %5, align 8, !tbaa !11
  store i32 %16, ptr %17, align 4, !tbaa !16
  store i1 true, ptr %3, align 1
  br label %47

18:                                               ; preds = %9, %2
  %19 = load i8, ptr %4, align 1, !tbaa !15
  %20 = sext i8 %19 to i32
  %21 = icmp sle i32 65, %20
  br i1 %21, label %22, label %32

22:                                               ; preds = %18
  %23 = load i8, ptr %4, align 1, !tbaa !15
  %24 = sext i8 %23 to i32
  %25 = icmp sle i32 %24, 70
  br i1 %25, label %26, label %32

26:                                               ; preds = %22
  %27 = load i8, ptr %4, align 1, !tbaa !15
  %28 = sext i8 %27 to i32
  %29 = add nsw i32 10, %28
  %30 = sub nsw i32 %29, 65
  %31 = load ptr, ptr %5, align 8, !tbaa !11
  store i32 %30, ptr %31, align 4, !tbaa !16
  store i1 true, ptr %3, align 1
  br label %47

32:                                               ; preds = %22, %18
  %33 = load i8, ptr %4, align 1, !tbaa !15
  %34 = sext i8 %33 to i32
  %35 = icmp sle i32 97, %34
  br i1 %35, label %36, label %46

36:                                               ; preds = %32
  %37 = load i8, ptr %4, align 1, !tbaa !15
  %38 = sext i8 %37 to i32
  %39 = icmp sle i32 %38, 102
  br i1 %39, label %40, label %46

40:                                               ; preds = %36
  %41 = load i8, ptr %4, align 1, !tbaa !15
  %42 = sext i8 %41 to i32
  %43 = add nsw i32 10, %42
  %44 = sub nsw i32 %43, 97
  %45 = load ptr, ptr %5, align 8, !tbaa !11
  store i32 %44, ptr %45, align 4, !tbaa !16
  store i1 true, ptr %3, align 1
  br label %47

46:                                               ; preds = %36, %32
  store i1 false, ptr %3, align 1
  br label %47

47:                                               ; preds = %46, %40, %26, %13
  %48 = load i1, ptr %3, align 1
  ret i1 %48
}

; Function Attrs: mustprogress uwtable
define hidden noundef zeroext i1 @_ZN7zstring14is_escape_charERPKcRj(ptr noundef nonnull align 8 dereferenceable(80) %0, ptr noundef nonnull align 8 dereferenceable(8) %1, ptr noundef nonnull align 4 dereferenceable(4) %2) #4 align 2 {
  %4 = alloca i1, align 1
  %5 = alloca ptr, align 8
  %6 = alloca ptr, align 8
  %7 = alloca ptr, align 8
  %8 = alloca i32, align 4
  %9 = alloca i32, align 4
  %10 = alloca i32, align 4
  %11 = alloca i32, align 4
  %12 = alloca i32, align 4
  %13 = alloca i32, align 4
  %14 = alloca i32, align 4
  store ptr %0, ptr %5, align 8, !tbaa !3
  store ptr %1, ptr %6, align 8, !tbaa !8
  store ptr %2, ptr %7, align 8, !tbaa !11
  call void @llvm.lifetime.start.p0(i64 4, ptr %8) #3
  %15 = load ptr, ptr %6, align 8, !tbaa !8
  %16 = load ptr, ptr %15, align 8, !tbaa !13
  %17 = load i8, ptr %16, align 1, !tbaa !15
  %18 = sext i8 %17 to i32
  %19 = icmp eq i32 %18, 92
  br i1 %19, label %20, label %94

20:                                               ; preds = %3
  %21 = load ptr, ptr %6, align 8, !tbaa !8
  %22 = load ptr, ptr %21, align 8, !tbaa !13
  %23 = getelementptr inbounds i8, ptr %22, i64 1
  %24 = load i8, ptr %23, align 1, !tbaa !15
  %25 = sext i8 %24 to i32
  %26 = icmp eq i32 %25, 117
  br i1 %26, label %27, label %94

27:                                               ; preds = %20
  %28 = load ptr, ptr %6, align 8, !tbaa !8
  %29 = load ptr, ptr %28, align 8, !tbaa !13
  %30 = getelementptr inbounds i8, ptr %29, i64 2
  %31 = load i8, ptr %30, align 1, !tbaa !15
  %32 = sext i8 %31 to i32
  %33 = icmp eq i32 %32, 123
  br i1 %33, label %34, label %94

34:                                               ; preds = %27
  %35 = load ptr, ptr %6, align 8, !tbaa !8
  %36 = load ptr, ptr %35, align 8, !tbaa !13
  %37 = getelementptr inbounds i8, ptr %36, i64 3
  %38 = load i8, ptr %37, align 1, !tbaa !15
  %39 = sext i8 %38 to i32
  %40 = icmp ne i32 %39, 125
  br i1 %40, label %41, label %94

41:                                               ; preds = %34
  %42 = load ptr, ptr %7, align 8, !tbaa !11
  store i32 0, ptr %42, align 4, !tbaa !16
  call void @llvm.lifetime.start.p0(i64 4, ptr %9) #3
  store i32 0, ptr %9, align 4, !tbaa !16
  br label %43

43:                                               ; preds = %88, %41
  %44 = load i32, ptr %9, align 4, !tbaa !16
  %45 = icmp ult i32 %44, 6
  br i1 %45, label %47, label %46

46:                                               ; preds = %43
  store i32 2, ptr %10, align 4
  br label %91

47:                                               ; preds = %43
  %48 = load ptr, ptr %6, align 8, !tbaa !8
  %49 = load ptr, ptr %48, align 8, !tbaa !13
  %50 = getelementptr inbounds i8, ptr %49, i64 3
  %51 = load i32, ptr %9, align 4, !tbaa !16
  %52 = zext i32 %51 to i64
  %53 = getelementptr inbounds nuw i8, ptr %50, i64 %52
  %54 = load i8, ptr %53, align 1, !tbaa !15
  %55 = call noundef zeroext i1 @_ZL12is_hex_digitcRj(i8 noundef signext %54, ptr noundef nonnull align 4 dereferenceable(4) %8)
  br i1 %55, label %56, label %63

56:                                               ; preds = %47
  %57 = load ptr, ptr %7, align 8, !tbaa !11
  %58 = load i32, ptr %57, align 4, !tbaa !16
  %59 = mul i32 16, %58
  %60 = load i32, ptr %8, align 4, !tbaa !16
  %61 = add i32 %59, %60
  %62 = load ptr, ptr %7, align 8, !tbaa !11
  store i32 %61, ptr %62, align 4, !tbaa !16
  br label %87

63:                                               ; preds = %47
  %64 = load ptr, ptr %6, align 8, !tbaa !8
  %65 = load ptr, ptr %64, align 8, !tbaa !13
  %66 = getelementptr inbounds i8, ptr %65, i64 3
  %67 = load i32, ptr %9, align 4, !tbaa !16
  %68 = zext i32 %67 to i64
  %69 = getelementptr inbounds nuw i8, ptr %66, i64 %68
  %70 = load i8, ptr %69, align 1, !tbaa !15
  %71 = sext i8 %70 to i32
  %72 = icmp eq i32 %71, 125
  br i1 %72, label %73, label %86

73:                                               ; preds = %63
  %74 = load ptr, ptr %7, align 8, !tbaa !11
  %75 = load i32, ptr %74, align 4, !tbaa !16
  %76 = call noundef i32 @_ZN7zstring8max_charEv()
  %77 = icmp ugt i32 %75, %76
  br i1 %77, label %78, label %79

78:                                               ; preds = %73
  store i1 false, ptr %4, align 1
  store i32 1, ptr %10, align 4
  br label %91

79:                                               ; preds = %73
  %80 = load i32, ptr %9, align 4, !tbaa !16
  %81 = add i32 4, %80
  %82 = load ptr, ptr %6, align 8, !tbaa !8
  %83 = load ptr, ptr %82, align 8, !tbaa !13
  %84 = zext i32 %81 to i64
  %85 = getelementptr inbounds nuw i8, ptr %83, i64 %84
  store ptr %85, ptr %82, align 8, !tbaa !13
  store i1 true, ptr %4, align 1
  store i32 1, ptr %10, align 4
  br label %91

86:                                               ; preds = %63
  store i32 2, ptr %10, align 4
  br label %91

87:                                               ; preds = %56
  br label %88

88:                                               ; preds = %87
  %89 = load i32, ptr %9, align 4, !tbaa !16
  %90 = add i32 %89, 1
  store i32 %90, ptr %9, align 4, !tbaa !16
  br label %43, !llvm.loop !18

91:                                               ; preds = %86, %79, %78, %46
  call void @llvm.lifetime.end.p0(i64 4, ptr %9) #3
  %92 = load i32, ptr %10, align 4
  switch i32 %92, label %163 [
    i32 2, label %93
  ]

93:                                               ; preds = %91
  store i1 false, ptr %4, align 1
  store i32 1, ptr %10, align 4
  br label %163

94:                                               ; preds = %34, %27, %20, %3
  call void @llvm.lifetime.start.p0(i64 4, ptr %11) #3
  call void @llvm.lifetime.start.p0(i64 4, ptr %12) #3
  call void @llvm.lifetime.start.p0(i64 4, ptr %13) #3
  call void @llvm.lifetime.start.p0(i64 4, ptr %14) #3
  %95 = load ptr, ptr %6, align 8, !tbaa !8
  %96 = load ptr, ptr %95, align 8, !tbaa !13
  %97 = load i8, ptr %96, align 1, !tbaa !15
  %98 = sext i8 %97 to i32
  %99 = icmp eq i32 %98, 92
  br i1 %99, label %100, label %161

100:                                              ; preds = %94
  %101 = load ptr, ptr %6, align 8, !tbaa !8
  %102 = load ptr, ptr %101, align 8, !tbaa !13
  %103 = getelementptr inbounds i8, ptr %102, i64 1
  %104 = load i8, ptr %103, align 1, !tbaa !15
  %105 = sext i8 %104 to i32
  %106 = icmp eq i32 %105, 117
  br i1 %106, label %107, label %161

107:                                              ; preds = %100
  %108 = load ptr, ptr %6, align 8, !tbaa !8
  %109 = load ptr, ptr %108, align 8, !tbaa !13
  %110 = getelementptr inbounds i8, ptr %109, i64 2
  %111 = load i8, ptr %110, align 1, !tbaa !15
  %112 = call noundef zeroext i1 @_ZL12is_hex_digitcRj(i8 noundef signext %111, ptr noundef nonnull align 4 dereferenceable(4) %11)
  br i1 %112, label %113, label %161

113:                                              ; preds = %107
  %114 = load ptr, ptr %6, align 8, !tbaa !8
  %115 = load ptr, ptr %114, align 8, !tbaa !13
  %116 = getelementptr inbounds i8, ptr %115, i64 3
  %117 = load i8, ptr %116, align 1, !tbaa !15
  %118 = call noundef zeroext i1 @_ZL12is_hex_digitcRj(i8 noundef signext %117, ptr noundef nonnull align 4 dereferenceable(4) %12)
  br i1 %118, label %119, label %161

119:                                              ; preds = %113
  %120 = load ptr, ptr %6, align 8, !tbaa !8
  %121 = load ptr, ptr %120, align 8, !tbaa !13
  %122 = getelementptr inbounds i8, ptr %121, i64 4
  %123 = load i8, ptr %122, align 1, !tbaa !15
  %124 = call noundef zeroext i1 @_ZL12is_hex_digitcRj(i8 noundef signext %123, ptr noundef nonnull align 4 dereferenceable(4) %13)
  br i1 %124, label %125, label %161

125:                                              ; preds = %119
  %126 = load ptr, ptr %6, align 8, !tbaa !8
  %127 = load ptr, ptr %126, align 8, !tbaa !13
  %128 = getelementptr inbounds i8, ptr %127, i64 5
  %129 = load i8, ptr %128, align 1, !tbaa !15
  %130 = call noundef zeroext i1 @_ZL12is_hex_digitcRj(i8 noundef signext %129, ptr noundef nonnull align 4 dereferenceable(4) %14)
  br i1 %130, label %131, label %161

131:                                              ; preds = %125
  %132 = load i32, ptr %11, align 4, !tbaa !16
  %133 = load ptr, ptr %7, align 8, !tbaa !11
  store i32 %132, ptr %133, align 4, !tbaa !16
  %134 = load ptr, ptr %7, align 8, !tbaa !11
  %135 = load i32, ptr %134, align 4, !tbaa !16
  %136 = mul i32 16, %135
  %137 = load i32, ptr %12, align 4, !tbaa !16
  %138 = add i32 %136, %137
  %139 = load ptr, ptr %7, align 8, !tbaa !11
  store i32 %138, ptr %139, align 4, !tbaa !16
  %140 = load ptr, ptr %7, align 8, !tbaa !11
  %141 = load i32, ptr %140, align 4, !tbaa !16
  %142 = mul i32 16, %141
  %143 = load i32, ptr %13, align 4, !tbaa !16
  %144 = add i32 %142, %143
  %145 = load ptr, ptr %7, align 8, !tbaa !11
  store i32 %144, ptr %145, align 4, !tbaa !16
  %146 = load ptr, ptr %7, align 8, !tbaa !11
  %147 = load i32, ptr %146, align 4, !tbaa !16
  %148 = mul i32 16, %147
  %149 = load i32, ptr %14, align 4, !tbaa !16
  %150 = add i32 %148, %149
  %151 = load ptr, ptr %7, align 8, !tbaa !11
  store i32 %150, ptr %151, align 4, !tbaa !16
  %152 = load ptr, ptr %7, align 8, !tbaa !11
  %153 = load i32, ptr %152, align 4, !tbaa !16
  %154 = call noundef i32 @_ZN7zstring8max_charEv()
  %155 = icmp ugt i32 %153, %154
  br i1 %155, label %156, label %157

156:                                              ; preds = %131
  store i1 false, ptr %4, align 1
  store i32 1, ptr %10, align 4
  br label %162

157:                                              ; preds = %131
  %158 = load ptr, ptr %6, align 8, !tbaa !8
  %159 = load ptr, ptr %158, align 8, !tbaa !13
  %160 = getelementptr inbounds i8, ptr %159, i64 6
  store ptr %160, ptr %158, align 8, !tbaa !13
  store i1 true, ptr %4, align 1
  store i32 1, ptr %10, align 4
  br label %162

161:                                              ; preds = %125, %119, %113, %107, %100, %94
  store i1 false, ptr %4, align 1
  store i32 1, ptr %10, align 4
  br label %162

162:                                              ; preds = %161, %157, %156
  call void @llvm.lifetime.end.p0(i64 4, ptr %14) #3
  call void @llvm.lifetime.end.p0(i64 4, ptr %13) #3
  call void @llvm.lifetime.end.p0(i64 4, ptr %12) #3
  call void @llvm.lifetime.end.p0(i64 4, ptr %11) #3
  br label %163

163:                                              ; preds = %162, %93, %91
  call void @llvm.lifetime.end.p0(i64 4, ptr %8) #3
  %164 = load i1, ptr %4, align 1
  ret i1 %164
}