; Function Attrs: mustprogress uwtable
define hidden noundef zeroext i1 @_ZN7zstring14is_escape_charERPKcRj(ptr nonnull readnone align 8 captures(none) %0, ptr noundef nonnull align 8 captures(none) dereferenceable(8) %1, ptr noundef nonnull writeonly align 4 captures(none) dereferenceable(4) %2) local_unnamed_addr #3 align 2 {
  %4 = load ptr, ptr %1, align 8, !tbaa !3
  %5 = load i8, ptr %4, align 1, !tbaa !8
  %6 = icmp eq i8 %5, 92
  br i1 %6, label %7, label %_ZL12is_hex_digitcRj.exit41

7:                                                ; preds = %3
  %8 = getelementptr inbounds nuw i8, ptr %4, i64 1
  %9 = load i8, ptr %8, align 1, !tbaa !8
  %10 = icmp eq i8 %9, 117
  br i1 %10, label %11, label %_ZL12is_hex_digitcRj.exit41

11:                                               ; preds = %7
  %12 = getelementptr inbounds nuw i8, ptr %4, i64 2
  %13 = load i8, ptr %12, align 1, !tbaa !8
  %14 = icmp eq i8 %13, 123
  br i1 %14, label %15, label %41

15:                                               ; preds = %11
  %16 = getelementptr inbounds nuw i8, ptr %4, i64 3
  %17 = load i8, ptr %16, align 1, !tbaa !8
  %.not = icmp eq i8 %17, 125
  br i1 %.not, label %41, label %18

18:                                               ; preds = %15
  store i32 0, ptr %2, align 4, !tbaa !9
  br label %19

19:                                               ; preds = %18, %29
  %indvars.iv = phi i64 [ 0, %18 ], [ %indvars.iv.next, %29 ]
  %20 = phi i32 [ 0, %18 ], [ %32, %29 ]
  %21 = getelementptr inbounds nuw i8, ptr %16, i64 %indvars.iv
  %22 = load i8, ptr %21, align 1, !tbaa !8
  %23 = sext i8 %22 to i32
  %24 = add i8 %22, -48
  %or.cond.i = icmp ult i8 %24, 10
  br i1 %or.cond.i, label %29, label %25

25:                                               ; preds = %19
  %26 = add i8 %22, -65
  %or.cond5.i = icmp ult i8 %26, 6
  br i1 %or.cond5.i, label %29, label %27

27:                                               ; preds = %25
  %28 = add i8 %22, -97
  %or.cond8.i = icmp ult i8 %28, 6
  br i1 %or.cond8.i, label %29, label %_ZL12is_hex_digitcRj.exit

29:                                               ; preds = %19, %25, %27
  %.sink21.i = phi i32 [ -48, %19 ], [ -55, %25 ], [ -87, %27 ]
  %30 = add nsw i32 %.sink21.i, %23
  %31 = shl i32 %20, 4
  %32 = add i32 %30, %31
  store i32 %32, ptr %2, align 4, !tbaa !9
  %indvars.iv.next = add nuw nsw i64 %indvars.iv, 1
  %exitcond.not = icmp eq i64 %indvars.iv.next, 6
  br i1 %exitcond.not, label %_ZL12is_hex_digitcRj.exit41, label %19, !llvm.loop !11

_ZL12is_hex_digitcRj.exit:                        ; preds = %27
  %33 = icmp eq i8 %22, 125
  br i1 %33, label %switch.lookup, label %_ZL12is_hex_digitcRj.exit41

switch.lookup:                                    ; preds = %_ZL12is_hex_digitcRj.exit
  %34 = tail call noundef i32 @_ZN7zstring12get_encodingEv()
  %35 = zext nneg i32 %34 to i64
  %switch.gep = getelementptr inbounds nuw [3 x i32], ptr @switch.table._ZNK7zstring11well_formedEv, i64 0, i64 %35
  %switch.load = load i32, ptr %switch.gep, align 4
  %36 = icmp ugt i32 %20, %switch.load
  br i1 %36, label %_ZL12is_hex_digitcRj.exit41, label %37

37:                                               ; preds = %switch.lookup
  %38 = load ptr, ptr %1, align 8, !tbaa !3
  %39 = getelementptr inbounds nuw i8, ptr %38, i64 %indvars.iv
  %40 = getelementptr inbounds nuw i8, ptr %39, i64 4
  br label %_ZL12is_hex_digitcRj.exit41.sink.split

41:                                               ; preds = %15, %11
  %42 = getelementptr inbounds nuw i8, ptr %4, i64 2
  %43 = load i8, ptr %42, align 1, !tbaa !8
  %44 = sext i8 %43 to i32
  %45 = add i8 %43, -48
  %or.cond.i35 = icmp ult i8 %45, 10
  br i1 %or.cond.i35, label %50, label %46

46:                                               ; preds = %41
  %47 = add i8 %43, -65
  %or.cond5.i36 = icmp ult i8 %47, 6
  br i1 %or.cond5.i36, label %50, label %48

48:                                               ; preds = %46
  %49 = add i8 %43, -97
  %or.cond8.i37 = icmp ult i8 %49, 6
  br i1 %or.cond8.i37, label %50, label %_ZL12is_hex_digitcRj.exit41

50:                                               ; preds = %41, %46, %48
  %.sink21.i40 = phi i32 [ -48, %41 ], [ -55, %46 ], [ -87, %48 ]
  %51 = add nsw i32 %.sink21.i40, %44
  %52 = getelementptr inbounds nuw i8, ptr %4, i64 3
  %53 = load i8, ptr %52, align 1, !tbaa !8
  %54 = sext i8 %53 to i32
  %55 = add i8 %53, -48
  %or.cond.i42 = icmp ult i8 %55, 10
  br i1 %or.cond.i42, label %60, label %56

56:                                               ; preds = %50
  %57 = add i8 %53, -65
  %or.cond5.i43 = icmp ult i8 %57, 6
  br i1 %or.cond5.i43, label %60, label %58

58:                                               ; preds = %56
  %59 = add i8 %53, -97
  %or.cond8.i44 = icmp ult i8 %59, 6
  br i1 %or.cond8.i44, label %60, label %_ZL12is_hex_digitcRj.exit41

60:                                               ; preds = %50, %56, %58
  %.sink21.i47 = phi i32 [ -48, %50 ], [ -55, %56 ], [ -87, %58 ]
  %61 = add nsw i32 %.sink21.i47, %54
  %62 = getelementptr inbounds nuw i8, ptr %4, i64 4
  %63 = load i8, ptr %62, align 1, !tbaa !8
  %64 = sext i8 %63 to i32
  %65 = add i8 %63, -48
  %or.cond.i49 = icmp ult i8 %65, 10
  br i1 %or.cond.i49, label %70, label %66

66:                                               ; preds = %60
  %67 = add i8 %63, -65
  %or.cond5.i50 = icmp ult i8 %67, 6
  br i1 %or.cond5.i50, label %70, label %68

68:                                               ; preds = %66
  %69 = add i8 %63, -97
  %or.cond8.i51 = icmp ult i8 %69, 6
  br i1 %or.cond8.i51, label %70, label %_ZL12is_hex_digitcRj.exit41

70:                                               ; preds = %60, %66, %68
  %.sink21.i54 = phi i32 [ -48, %60 ], [ -55, %66 ], [ -87, %68 ]
  %71 = getelementptr inbounds nuw i8, ptr %4, i64 5
  %72 = load i8, ptr %71, align 1, !tbaa !8
  %73 = sext i8 %72 to i32
  %74 = add i8 %72, -48
  %or.cond.i56 = icmp ult i8 %74, 10
  br i1 %or.cond.i56, label %switch.lookup108, label %75

75:                                               ; preds = %70
  %76 = add i8 %72, -65
  %or.cond5.i57 = icmp ult i8 %76, 6
  br i1 %or.cond5.i57, label %switch.lookup108, label %77

77:                                               ; preds = %75
  %78 = add i8 %72, -97
  %or.cond8.i58 = icmp ult i8 %78, 6
  br i1 %or.cond8.i58, label %switch.lookup108, label %_ZL12is_hex_digitcRj.exit41

switch.lookup108:                                 ; preds = %70, %75, %77
  %.sink21.i61 = phi i32 [ -48, %70 ], [ -55, %75 ], [ -87, %77 ]
  %79 = shl nsw i32 %51, 8
  %80 = shl nsw i32 %61, 4
  %81 = add nsw i32 %80, %79
  %82 = add nsw i32 %81, %64
  %83 = add nsw i32 %82, %.sink21.i54
  %84 = shl nsw i32 %83, 4
  %85 = add nsw i32 %84, %73
  %86 = add nsw i32 %85, %.sink21.i61
  store i32 %86, ptr %2, align 4, !tbaa !9
  %87 = tail call noundef i32 @_ZN7zstring12get_encodingEv()
  %88 = zext nneg i32 %87 to i64
  %switch.gep109 = getelementptr inbounds nuw [3 x i32], ptr @switch.table._ZNK7zstring11well_formedEv, i64 0, i64 %88
  %switch.load110 = load i32, ptr %switch.gep109, align 4
  %89 = icmp ugt i32 %86, %switch.load110
  br i1 %89, label %_ZL12is_hex_digitcRj.exit41, label %90

90:                                               ; preds = %switch.lookup108
  %91 = load ptr, ptr %1, align 8, !tbaa !3
  %92 = getelementptr inbounds nuw i8, ptr %91, i64 6
  br label %_ZL12is_hex_digitcRj.exit41.sink.split

_ZL12is_hex_digitcRj.exit41.sink.split:           ; preds = %37, %90
  %.sink = phi ptr [ %92, %90 ], [ %40, %37 ]
  store ptr %.sink, ptr %1, align 8, !tbaa !3
  br label %_ZL12is_hex_digitcRj.exit41

_ZL12is_hex_digitcRj.exit41:                      ; preds = %29, %_ZL12is_hex_digitcRj.exit41.sink.split, %7, %switch.lookup108, %3, %48, %58, %68, %77, %switch.lookup, %_ZL12is_hex_digitcRj.exit
  %.1 = phi i1 [ false, %switch.lookup ], [ false, %_ZL12is_hex_digitcRj.exit ], [ false, %switch.lookup108 ], [ false, %3 ], [ false, %48 ], [ false, %58 ], [ false, %68 ], [ false, %77 ], [ false, %7 ], [ true, %_ZL12is_hex_digitcRj.exit41.sink.split ], [ false, %29 ]
  ret i1 %.1
}